target datalayout = "e-m:e-p270:32:32-p271:32:32-p272:64:64-i64:64-i128:128-f80:128-n8:16:32:64-S128"
target triple = "x86_64-pc-linux-gnu"

; Function Attrs: nounwind uwtable
define void @ff_matrix_invert_3x3(ptr noundef %0, ptr noundef %1) #0 {
  %3 = alloca ptr, align 8
  %4 = alloca ptr, align 8
  %5 = alloca double, align 8
  %6 = alloca double, align 8
  %7 = alloca double, align 8
  %8 = alloca double, align 8
  %9 = alloca double, align 8
  %10 = alloca double, align 8
  %11 = alloca double, align 8
  %12 = alloca double, align 8
  %13 = alloca double, align 8
  %14 = alloca i32, align 4
  %15 = alloca i32, align 4
  %16 = alloca double, align 8
  store ptr %0, ptr %3, align 8, !tbaa !4
  store ptr %1, ptr %4, align 8, !tbaa !4
  call void @llvm.lifetime.start.p0(i64 8, ptr %5) #7
  %17 = load ptr, ptr %3, align 8, !tbaa !4
  %18 = getelementptr inbounds [3 x double], ptr %17, i64 0
  %19 = getelementptr inbounds [3 x double], ptr %18, i64 0, i64 0
  %20 = load double, ptr %19, align 8, !tbaa !9
  store double %20, ptr %5, align 8, !tbaa !9
  call void @llvm.lifetime.start.p0(i64 8, ptr %6) #7
  %21 = load ptr, ptr %3, align 8, !tbaa !4
  %22 = getelementptr inbounds [3 x double], ptr %21, i64 0
  %23 = getelementptr inbounds [3 x double], ptr %22, i64 0, i64 1
  %24 = load double, ptr %23, align 8, !tbaa !9
  store double %24, ptr %6, align 8, !tbaa !9
  call void @llvm.lifetime.start.p0(i64 8, ptr %7) #7
  %25 = load ptr, ptr %3, align 8, !tbaa !4
  %26 = getelementptr inbounds [3 x double], ptr %25, i64 0
  %27 = getelementptr inbounds [3 x double], ptr %26, i64 0, i64 2
  %28 = load double, ptr %27, align 8, !tbaa !9
  store double %28, ptr %7, align 8, !tbaa !9
  call void @llvm.lifetime.start.p0(i64 8, ptr %8) #7
  %29 = load ptr, ptr %3, align 8, !tbaa !4
  %30 = getelementptr inbounds [3 x double], ptr %29, i64 1
  %31 = getelementptr inbounds [3 x double], ptr %30, i64 0, i64 0
  %32 = load double, ptr %31, align 8, !tbaa !9
  store double %32, ptr %8, align 8, !tbaa !9
  call void @llvm.lifetime.start.p0(i64 8, ptr %9) #7
  %33 = load ptr, ptr %3, align 8, !tbaa !4
  %34 = getelementptr inbounds [3 x double], ptr %33, i64 1
  %35 = getelementptr inbounds [3 x double], ptr %34, i64 0, i64 1
  %36 = load double, ptr %35, align 8, !tbaa !9
  store double %36, ptr %9, align 8, !tbaa !9
  call void @llvm.lifetime.start.p0(i64 8, ptr %10) #7
  %37 = load ptr, ptr %3, align 8, !tbaa !4
  %38 = getelementptr inbounds [3 x double], ptr %37, i64 1
  %39 = getelementptr inbounds [3 x double], ptr %38, i64 0, i64 2
  %40 = load double, ptr %39, align 8, !tbaa !9
  store double %40, ptr %10, align 8, !tbaa !9
  call void @llvm.lifetime.start.p0(i64 8, ptr %11) #7
  %41 = load ptr, ptr %3, align 8, !tbaa !4
  %42 = getelementptr inbounds [3 x double], ptr %41, i64 2
  %43 = getelementptr inbounds [3 x double], ptr %42, i64 0, i64 0
  %44 = load double, ptr %43, align 8, !tbaa !9
  store double %44, ptr %11, align 8, !tbaa !9
  call void @llvm.lifetime.start.p0(i64 8, ptr %12) #7
  %45 = load ptr, ptr %3, align 8, !tbaa !4
  %46 = getelementptr inbounds [3 x double], ptr %45, i64 2
  %47 = getelementptr inbounds [3 x double], ptr %46, i64 0, i64 1
  %48 = load double, ptr %47, align 8, !tbaa !9
  store double %48, ptr %12, align 8, !tbaa !9
  call void @llvm.lifetime.start.p0(i64 8, ptr %13) #7
  %49 = load ptr, ptr %3, align 8, !tbaa !4
  %50 = getelementptr inbounds [3 x double], ptr %49, i64 2
  %51 = getelementptr inbounds [3 x double], ptr %50, i64 0, i64 2
  %52 = load double, ptr %51, align 8, !tbaa !9
  store double %52, ptr %13, align 8, !tbaa !9
  call void @llvm.lifetime.start.p0(i64 4, ptr %14) #7
  call void @llvm.lifetime.start.p0(i64 4, ptr %15) #7
  call void @llvm.lifetime.start.p0(i64 8, ptr %16) #7
  %53 = load double, ptr %9, align 8, !tbaa !9
  %54 = load double, ptr %13, align 8, !tbaa !9
  %55 = load double, ptr %12, align 8, !tbaa !9
  %56 = load double, ptr %10, align 8, !tbaa !9
  %57 = fmul nsz double %55, %56
  %58 = fneg nsz double %57
  %59 = call nsz double @llvm.fmuladd.f64(double %53, double %54, double %58)
  %60 = load ptr, ptr %4, align 8, !tbaa !4
  %61 = getelementptr inbounds [3 x double], ptr %60, i64 0
  %62 = getelementptr inbounds [3 x double], ptr %61, i64 0, i64 0
  store double %59, ptr %62, align 8, !tbaa !9
  %63 = load double, ptr %6, align 8, !tbaa !9
  %64 = load double, ptr %13, align 8, !tbaa !9
  %65 = load double, ptr %12, align 8, !tbaa !9
  %66 = load double, ptr %7, align 8, !tbaa !9
  %67 = fmul nsz double %65, %66
  %68 = fneg nsz double %67
  %69 = call nsz double @llvm.fmuladd.f64(double %63, double %64, double %68)
  %70 = fneg nsz double %69
  %71 = load ptr, ptr %4, align 8, !tbaa !4
  %72 = getelementptr inbounds [3 x double], ptr %71, i64 0
  %73 = getelementptr inbounds [3 x double], ptr %72, i64 0, i64 1
  store double %70, ptr %73, align 8, !tbaa !9
  %74 = load double, ptr %6, align 8, !tbaa !9
  %75 = load double, ptr %10, align 8, !tbaa !9
  %76 = load double, ptr %9, align 8, !tbaa !9
  %77 = load double, ptr %7, align 8, !tbaa !9
  %78 = fmul nsz double %76, %77
  %79 = fneg nsz double %78
  %80 = call nsz double @llvm.fmuladd.f64(double %74, double %75, double %79)
  %81 = load ptr, ptr %4, align 8, !tbaa !4
  %82 = getelementptr inbounds [3 x double], ptr %81, i64 0
  %83 = getelementptr inbounds [3 x double], ptr %82, i64 0, i64 2
  store double %80, ptr %83, align 8, !tbaa !9
  %84 = load double, ptr %8, align 8, !tbaa !9
  %85 = load double, ptr %13, align 8, !tbaa !9
  %86 = load double, ptr %11, align 8, !tbaa !9
  %87 = load double, ptr %10, align 8, !tbaa !9
  %88 = fmul nsz double %86, %87
  %89 = fneg nsz double %88
  %90 = call nsz double @llvm.fmuladd.f64(double %84, double %85, double %89)
  %91 = fneg nsz double %90
  %92 = load ptr, ptr %4, align 8, !tbaa !4
  %93 = getelementptr inbounds [3 x double], ptr %92, i64 1
  %94 = getelementptr inbounds [3 x double], ptr %93, i64 0, i64 0
  store double %91, ptr %94, align 8, !tbaa !9
  %95 = load double, ptr %5, align 8, !tbaa !9
  %96 = load double, ptr %13, align 8, !tbaa !9
  %97 = load double, ptr %11, align 8, !tbaa !9
  %98 = load double, ptr %7, align 8, !tbaa !9
  %99 = fmul nsz double %97, %98
  %100 = fneg nsz double %99
  %101 = call nsz double @llvm.fmuladd.f64(double %95, double %96, double %100)
  %102 = load ptr, ptr %4, align 8, !tbaa !4
  %103 = getelementptr inbounds [3 x double], ptr %102, i64 1
  %104 = getelementptr inbounds [3 x double], ptr %103, i64 0, i64 1
  store double %101, ptr %104, align 8, !tbaa !9
  %105 = load double, ptr %5, align 8, !tbaa !9
  %106 = load double, ptr %10, align 8, !tbaa !9
  %107 = load double, ptr %8, align 8, !tbaa !9
  %108 = load double, ptr %7, align 8, !tbaa !9
  %109 = fmul nsz double %107, %108
  %110 = fneg nsz double %109
  %111 = call nsz double @llvm.fmuladd.f64(double %105, double %106, double %110)
  %112 = fneg nsz double %111
  %113 = load ptr, ptr %4, align 8, !tbaa !4
  %114 = getelementptr inbounds [3 x double], ptr %113, i64 1
  %115 = getelementptr inbounds [3 x double], ptr %114, i64 0, i64 2
  store double %112, ptr %115, align 8, !tbaa !9
  %116 = load double, ptr %8, align 8, !tbaa !9
  %117 = load double, ptr %12, align 8, !tbaa !9
  %118 = load double, ptr %11, align 8, !tbaa !9
  %119 = load double, ptr %9, align 8, !tbaa !9
  %120 = fmul nsz double %118, %119
  %121 = fneg nsz double %120
  %122 = call nsz double @llvm.fmuladd.f64(double %116, double %117, double %121)
  %123 = load ptr, ptr %4, align 8, !tbaa !4
  %124 = getelementptr inbounds [3 x double], ptr %123, i64 2
  %125 = getelementptr inbounds [3 x double], ptr %124, i64 0, i64 0
  store double %122, ptr %125, align 8, !tbaa !9
  %126 = load double, ptr %5, align 8, !tbaa !9
  %127 = load double, ptr %12, align 8, !tbaa !9
  %128 = load double, ptr %11, align 8, !tbaa !9
  %129 = load double, ptr %6, align 8, !tbaa !9
  %130 = fmul nsz double %128, %129
  %131 = fneg nsz double %130
  %132 = call nsz double @llvm.fmuladd.f64(double %126, double %127, double %131)
  %133 = fneg nsz double %132
  %134 = load ptr, ptr %4, align 8, !tbaa !4
  %135 = getelementptr inbounds [3 x double], ptr %134, i64 2
  %136 = getelementptr inbounds [3 x double], ptr %135, i64 0, i64 1
  store double %133, ptr %136, align 8, !tbaa !9
  %137 = load double, ptr %5, align 8, !tbaa !9
  %138 = load double, ptr %9, align 8, !tbaa !9
  %139 = load double, ptr %8, align 8, !tbaa !9
  %140 = load double, ptr %6, align 8, !tbaa !9
  %141 = fmul nsz double %139, %140
  %142 = fneg nsz double %141
  %143 = call nsz double @llvm.fmuladd.f64(double %137, double %138, double %142)
  %144 = load ptr, ptr %4, align 8, !tbaa !4
  %145 = getelementptr inbounds [3 x double], ptr %144, i64 2
  %146 = getelementptr inbounds [3 x double], ptr %145, i64 0, i64 2
  store double %143, ptr %146, align 8, !tbaa !9
  %147 = load double, ptr %5, align 8, !tbaa !9
  %148 = load ptr, ptr %4, align 8, !tbaa !4
  %149 = getelementptr inbounds [3 x double], ptr %148, i64 0
  %150 = getelementptr inbounds [3 x double], ptr %149, i64 0, i64 0
  %151 = load double, ptr %150, align 8, !tbaa !9
  %152 = load double, ptr %8, align 8, !tbaa !9
  %153 = load ptr, ptr %4, align 8, !tbaa !4
  %154 = getelementptr inbounds [3 x double], ptr %153, i64 0
  %155 = getelementptr inbounds [3 x double], ptr %154, i64 0, i64 1
  %156 = load double, ptr %155, align 8, !tbaa !9
  %157 = fmul nsz double %152, %156
  %158 = call nsz double @llvm.fmuladd.f64(double %147, double %151, double %157)
  %159 = load double, ptr %11, align 8, !tbaa !9
  %160 = load ptr, ptr %4, align 8, !tbaa !4
  %161 = getelementptr inbounds [3 x double], ptr %160, i64 0
  %162 = getelementptr inbounds [3 x double], ptr %161, i64 0, i64 2
  %163 = load double, ptr %162, align 8, !tbaa !9
  %164 = call nsz double @llvm.fmuladd.f64(double %159, double %163, double %158)
  store double %164, ptr %16, align 8, !tbaa !9
  %165 = load double, ptr %16, align 8, !tbaa !9
  %166 = fdiv nsz double 1.000000e+00, %165
  store double %166, ptr %16, align 8, !tbaa !9
  store i32 0, ptr %14, align 4, !tbaa !11
  br label %167

167:                                              ; preds = %189, %2
  %168 = load i32, ptr %14, align 4, !tbaa !11
  %169 = icmp slt i32 %168, 3
  br i1 %169, label %170, label %192

170:                                              ; preds = %167
  store i32 0, ptr %15, align 4, !tbaa !11
  br label %171

171:                                              ; preds = %185, %170
  %172 = load i32, ptr %15, align 4, !tbaa !11
  %173 = icmp slt i32 %172, 3
  br i1 %173, label %174, label %188

174:                                              ; preds = %171
  %175 = load double, ptr %16, align 8, !tbaa !9
  %176 = load ptr, ptr %4, align 8, !tbaa !4
  %177 = load i32, ptr %14, align 4, !tbaa !11
  %178 = sext i32 %177 to i64
  %179 = getelementptr inbounds [3 x double], ptr %176, i64 %178
  %180 = load i32, ptr %15, align 4, !tbaa !11
  %181 = sext i32 %180 to i64
  %182 = getelementptr inbounds [3 x double], ptr %179, i64 0, i64 %181
  %183 = load double, ptr %182, align 8, !tbaa !9
  %184 = fmul nsz double %183, %175
  store double %184, ptr %182, align 8, !tbaa !9
  br label %185

185:                                              ; preds = %174
  %186 = load i32, ptr %15, align 4, !tbaa !11
  %187 = add nsw i32 %186, 1
  store i32 %187, ptr %15, align 4, !tbaa !11
  br label %171, !llvm.loop !13

188:                                              ; preds = %171
  br label %189

189:                                              ; preds = %188
  %190 = load i32, ptr %14, align 4, !tbaa !11
  %191 = add nsw i32 %190, 1
  store i32 %191, ptr %14, align 4, !tbaa !11
  br label %167, !llvm.loop !15

192:                                              ; preds = %167
  call void @llvm.lifetime.end.p0(i64 8, ptr %16) #7
  call void @llvm.lifetime.end.p0(i64 4, ptr %15) #7
  call void @llvm.lifetime.end.p0(i64 4, ptr %14) #7
  call void @llvm.lifetime.end.p0(i64 8, ptr %13) #7
  call void @llvm.lifetime.end.p0(i64 8, ptr %12) #7
  call void @llvm.lifetime.end.p0(i64 8, ptr %11) #7
  call void @llvm.lifetime.end.p0(i64 8, ptr %10) #7
  call void @llvm.lifetime.end.p0(i64 8, ptr %9) #7
  call void @llvm.lifetime.end.p0(i64 8, ptr %8) #7
  call void @llvm.lifetime.end.p0(i64 8, ptr %7) #7
  call void @llvm.lifetime.end.p0(i64 8, ptr %6) #7
  call void @llvm.lifetime.end.p0(i64 8, ptr %5) #7
  ret void
}