; Function Attrs: nofree norecurse nosync nounwind memory(argmem: readwrite) uwtable
define void @ff_matrix_invert_3x3(ptr noundef readonly captures(none) %0, ptr noundef captures(none) initializes((0, 72)) %1) local_unnamed_addr #0 {
  %3 = load double, ptr %0, align 8, !tbaa !4
  %4 = getelementptr inbounds nuw i8, ptr %0, i64 8
  %5 = load double, ptr %4, align 8, !tbaa !4
  %6 = getelementptr inbounds nuw i8, ptr %0, i64 16
  %7 = load double, ptr %6, align 8, !tbaa !4
  %8 = getelementptr inbounds nuw i8, ptr %0, i64 24
  %9 = load double, ptr %8, align 8, !tbaa !4
  %10 = getelementptr inbounds nuw i8, ptr %0, i64 32
  %11 = load double, ptr %10, align 8, !tbaa !4
  %12 = getelementptr inbounds nuw i8, ptr %0, i64 40
  %13 = load double, ptr %12, align 8, !tbaa !4
  %14 = getelementptr inbounds nuw i8, ptr %0, i64 48
  %15 = load double, ptr %14, align 8, !tbaa !4
  %16 = getelementptr inbounds nuw i8, ptr %0, i64 56
  %17 = load double, ptr %16, align 8, !tbaa !4
  %18 = getelementptr inbounds nuw i8, ptr %0, i64 64
  %19 = load double, ptr %18, align 8, !tbaa !4
  %20 = fneg nsz double %13
  %21 = fmul nsz double %17, %20
  %22 = tail call nsz double @llvm.fmuladd.f64(double %11, double %19, double %21)
  store double %22, ptr %1, align 8, !tbaa !4
  %23 = fneg nsz double %7
  %24 = fmul nsz double %17, %23
  %25 = tail call nsz double @llvm.fmuladd.f64(double %5, double %19, double %24)
  %26 = fneg nsz double %25
  %27 = getelementptr inbounds nuw i8, ptr %1, i64 8
  store double %26, ptr %27, align 8, !tbaa !4
  %28 = fmul nsz double %11, %23
  %29 = tail call nsz double @llvm.fmuladd.f64(double %5, double %13, double %28)
  %30 = getelementptr inbounds nuw i8, ptr %1, i64 16
  store double %29, ptr %30, align 8, !tbaa !4
  %31 = fmul nsz double %15, %20
  %32 = tail call nsz double @llvm.fmuladd.f64(double %9, double %19, double %31)
  %33 = fneg nsz double %32
  %34 = getelementptr inbounds nuw i8, ptr %1, i64 24
  store double %33, ptr %34, align 8, !tbaa !4
  %35 = fmul nsz double %15, %23
  %36 = tail call nsz double @llvm.fmuladd.f64(double %3, double %19, double %35)
  %37 = getelementptr inbounds nuw i8, ptr %1, i64 32
  store double %36, ptr %37, align 8, !tbaa !4
  %38 = fmul nsz double %9, %23
  %39 = tail call nsz double @llvm.fmuladd.f64(double %3, double %13, double %38)
  %40 = fneg nsz double %39
  %41 = getelementptr inbounds nuw i8, ptr %1, i64 40
  store double %40, ptr %41, align 8, !tbaa !4
  %42 = fneg nsz double %11
  %43 = fmul nsz double %15, %42
  %44 = tail call nsz double @llvm.fmuladd.f64(double %9, double %17, double %43)
  %45 = getelementptr inbounds nuw i8, ptr %1, i64 48
  store double %44, ptr %45, align 8, !tbaa !4
  %46 = fneg nsz double %5
  %47 = fmul nsz double %15, %46
  %48 = tail call nsz double @llvm.fmuladd.f64(double %3, double %17, double %47)
  %49 = fneg nsz double %48
  %50 = getelementptr inbounds nuw i8, ptr %1, i64 56
  store double %49, ptr %50, align 8, !tbaa !4
  %51 = fmul nsz double %9, %46
  %52 = tail call nsz double @llvm.fmuladd.f64(double %3, double %11, double %51)
  %53 = getelementptr inbounds nuw i8, ptr %1, i64 64
  store double %52, ptr %53, align 8, !tbaa !4
  %54 = fmul nsz double %9, %26
  %55 = tail call nsz double @llvm.fmuladd.f64(double %3, double %22, double %54)
  %56 = tail call nsz double @llvm.fmuladd.f64(double %15, double %29, double %55)
  %57 = fdiv nsz double 1.000000e+00, %56
  br label %.preheader

.preheader:                                       ; preds = %2, %62
  %indvars.iv72 = phi i64 [ 0, %2 ], [ %indvars.iv.next73, %62 ]
  br label %58

58:                                               ; preds = %.preheader, %58
  %indvars.iv = phi i64 [ 0, %.preheader ], [ %indvars.iv.next, %58 ]
  %59 = getelementptr inbounds nuw [3 x double], ptr %1, i64 %indvars.iv72, i64 %indvars.iv
  %60 = load double, ptr %59, align 8, !tbaa !4
  %61 = fmul nsz double %57, %60
  store double %61, ptr %59, align 8, !tbaa !4
  %indvars.iv.next = add nuw nsw i64 %indvars.iv, 1
  %exitcond.not = icmp eq i64 %indvars.iv.next, 3
  br i1 %exitcond.not, label %62, label %58, !llvm.loop !8

62:                                               ; preds = %58
  %indvars.iv.next73 = add nuw nsw i64 %indvars.iv72, 1
  %exitcond75.not = icmp eq i64 %indvars.iv.next73, 3
  br i1 %exitcond75.not, label %63, label %.preheader, !llvm.loop !10

63:                                               ; preds = %62
  ret void
}